target datalayout = "e-m:e-p270:32:32-p271:32:32-p272:64:64-i64:64-i128:128-f80:128-n8:16:32:64-S128"
target triple = "x86_64-pc-linux-gnu"

%"class.std::vector.8" = type { %"struct.std::_Vector_base.9" }
%"struct.std::_Vector_base.9" = type { %"struct.std::_Vector_base<gmx::BasicVector<float>, std::allocator<gmx::BasicVector<float>>>::_Vector_impl" }
%"struct.std::_Vector_base<gmx::BasicVector<float>, std::allocator<gmx::BasicVector<float>>>::_Vector_impl" = type { %"struct.std::_Vector_base<gmx::BasicVector<float>, std::allocator<gmx::BasicVector<float>>>::_Vector_impl_data" }
%"struct.std::_Vector_base<gmx::BasicVector<float>, std::allocator<gmx::BasicVector<float>>>::_Vector_impl_data" = type { ptr, ptr, ptr }
%"class.std::vector.3" = type { %"struct.std::_Vector_base.4" }
%"struct.std::_Vector_base.4" = type { %"struct.std::_Vector_base<float, std::allocator<float>>::_Vector_impl" }
%"struct.std::_Vector_base<float, std::allocator<float>>::_Vector_impl" = type { %"struct.std::_Vector_base<float, std::allocator<float>>::_Vector_impl_data" }
%"struct.std::_Vector_base<float, std::allocator<float>>::_Vector_impl_data" = type { ptr, ptr, ptr }
%"class.std::vector" = type { %"struct.std::_Vector_base" }
%"struct.std::_Vector_base" = type { %"struct.std::_Vector_base<int, std::allocator<int>>::_Vector_impl" }
%"struct.std::_Vector_base<int, std::allocator<int>>::_Vector_impl" = type { %"struct.std::_Vector_base<int, std::allocator<int>>::_Vector_impl_data" }
%"struct.std::_Vector_base<int, std::allocator<int>>::_Vector_impl_data" = type { ptr, ptr, ptr }
%"class.std::tuple" = type { %"struct.std::_Tuple_impl" }
%"struct.std::_Tuple_impl" = type { %"struct.std::_Tuple_impl.13", %"struct.std::_Head_base.167" }
%"struct.std::_Tuple_impl.13" = type { %"struct.std::_Tuple_impl.14", %"struct.std::_Head_base.160" }
%"struct.std::_Tuple_impl.14" = type { %"struct.std::_Tuple_impl.15", %"struct.std::_Head_base.153" }
%"struct.std::_Tuple_impl.15" = type { %"struct.std::_Tuple_impl.16", %"struct.std::_Head_base.146" }
%"struct.std::_Tuple_impl.16" = type { %"struct.std::_Tuple_impl.17", %"struct.std::_Head_base.139" }
%"struct.std::_Tuple_impl.17" = type { %"struct.std::_Tuple_impl.18", %"struct.std::_Head_base.132" }
%"struct.std::_Tuple_impl.18" = type { %"struct.std::_Tuple_impl.19", %"struct.std::_Head_base.120" }
%"struct.std::_Tuple_impl.19" = type { %"struct.std::_Tuple_impl.20", %"struct.std::_Head_base.113" }
%"struct.std::_Tuple_impl.20" = type { %"struct.std::_Tuple_impl.21", %"struct.std::_Head_base.106" }
%"struct.std::_Tuple_impl.21" = type { %"struct.std::_Tuple_impl.22", %"struct.std::_Head_base.99" }
%"struct.std::_Tuple_impl.22" = type { %"struct.std::_Tuple_impl.23", %"struct.std::_Head_base.92" }
%"struct.std::_Tuple_impl.23" = type { %"struct.std::_Tuple_impl.24", %"struct.std::_Head_base.85" }
%"struct.std::_Tuple_impl.24" = type { %"struct.std::_Tuple_impl.25", %"struct.std::_Head_base.78" }
%"struct.std::_Tuple_impl.25" = type { %"struct.std::_Tuple_impl.26", %"struct.std::_Head_base.66" }
%"struct.std::_Tuple_impl.26" = type { %"struct.std::_Tuple_impl.27", %"struct.std::_Head_base.59" }
%"struct.std::_Tuple_impl.27" = type { %"struct.std::_Tuple_impl.28", %"struct.std::_Head_base.52" }
%"struct.std::_Tuple_impl.28" = type { %"struct.std::_Tuple_impl.29", %"struct.std::_Head_base.40" }
%"struct.std::_Tuple_impl.29" = type { %"struct.std::_Head_base" }
%"struct.std::_Head_base" = type { %"struct.nblib::ListedTypeData" }
%"struct.nblib::ListedTypeData" = type { %"class.std::vector.30", %"class.std::vector.35" }
%"class.std::vector.30" = type { %"struct.std::_Vector_base.31" }
%"struct.std::_Vector_base.31" = type { %"struct.std::_Vector_base<nblib::Default5Center, std::allocator<nblib::Default5Center>>::_Vector_impl" }
%"struct.std::_Vector_base<nblib::Default5Center, std::allocator<nblib::Default5Center>>::_Vector_impl" = type { %"struct.std::_Vector_base<nblib::Default5Center, std::allocator<nblib::Default5Center>>::_Vector_impl_data" }
%"struct.std::_Vector_base<nblib::Default5Center, std::allocator<nblib::Default5Center>>::_Vector_impl_data" = type { ptr, ptr, ptr }
%"class.std::vector.35" = type { %"struct.std::_Vector_base.36" }
%"struct.std::_Vector_base.36" = type { %"struct.std::_Vector_base<std::array<int, 6>, std::allocator<std::array<int, 6>>>::_Vector_impl" }
%"struct.std::_Vector_base<std::array<int, 6>, std::allocator<std::array<int, 6>>>::_Vector_impl" = type { %"struct.std::_Vector_base<std::array<int, 6>, std::allocator<std::array<int, 6>>>::_Vector_impl_data" }
%"struct.std::_Vector_base<std::array<int, 6>, std::allocator<std::array<int, 6>>>::_Vector_impl_data" = type { ptr, ptr, ptr }
%"struct.std::_Head_base.40" = type { %"struct.nblib::ListedTypeData.41" }
%"struct.nblib::ListedTypeData.41" = type { %"class.std::vector.42", %"class.std::vector.47" }
%"class.std::vector.42" = type { %"struct.std::_Vector_base.43" }
%"struct.std::_Vector_base.43" = type { %"struct.std::_Vector_base<nblib::RyckaertBellemanDihedral, std::allocator<nblib::RyckaertBellemanDihedral>>::_Vector_impl" }
%"struct.std::_Vector_base<nblib::RyckaertBellemanDihedral, std::allocator<nblib::RyckaertBellemanDihedral>>::_Vector_impl" = type { %"struct.std::_Vector_base<nblib::RyckaertBellemanDihedral, std::allocator<nblib::RyckaertBellemanDihedral>>::_Vector_impl_data" }
%"struct.std::_Vector_base<nblib::RyckaertBellemanDihedral, std::allocator<nblib::RyckaertBellemanDihedral>>::_Vector_impl_data" = type { ptr, ptr, ptr }
%"class.std::vector.47" = type { %"struct.std::_Vector_base.48" }
%"struct.std::_Vector_base.48" = type { %"struct.std::_Vector_base<std::array<int, 5>, std::allocator<std::array<int, 5>>>::_Vector_impl" }
%"struct.std::_Vector_base<std::array<int, 5>, std::allocator<std::array<int, 5>>>::_Vector_impl" = type { %"struct.std::_Vector_base<std::array<int, 5>, std::allocator<std::array<int, 5>>>::_Vector_impl_data" }
%"struct.std::_Vector_base<std::array<int, 5>, std::allocator<std::array<int, 5>>>::_Vector_impl_data" = type { ptr, ptr, ptr }
%"struct.std::_Head_base.52" = type { %"struct.nblib::ListedTypeData.53" }
%"struct.nblib::ListedTypeData.53" = type { %"class.std::vector.54", %"class.std::vector.47" }
%"class.std::vector.54" = type { %"struct.std::_Vector_base.55" }
%"struct.std::_Vector_base.55" = type { %"struct.std::_Vector_base<nblib::ImproperDihedral, std::allocator<nblib::ImproperDihedral>>::_Vector_impl" }
%"struct.std::_Vector_base<nblib::ImproperDihedral, std::allocator<nblib::ImproperDihedral>>::_Vector_impl" = type { %"struct.std::_Vector_base<nblib::ImproperDihedral, std::allocator<nblib::ImproperDihedral>>::_Vector_impl_data" }
%"struct.std::_Vector_base<nblib::ImproperDihedral, std::allocator<nblib::ImproperDihedral>>::_Vector_impl_data" = type { ptr, ptr, ptr }
%"struct.std::_Head_base.59" = type { %"struct.nblib::ListedTypeData.60" }
%"struct.nblib::ListedTypeData.60" = type { %"class.std::vector.61", %"class.std::vector.47" }
%"class.std::vector.61" = type { %"struct.std::_Vector_base.62" }
%"struct.std::_Vector_base.62" = type { %"struct.std::_Vector_base<nblib::ProperDihedral, std::allocator<nblib::ProperDihedral>>::_Vector_impl" }
%"struct.std::_Vector_base<nblib::ProperDihedral, std::allocator<nblib::ProperDihedral>>::_Vector_impl" = type { %"struct.std::_Vector_base<nblib::ProperDihedral, std::allocator<nblib::ProperDihedral>>::_Vector_impl_data" }
%"struct.std::_Vector_base<nblib::ProperDihedral, std::allocator<nblib::ProperDihedral>>::_Vector_impl_data" = type { ptr, ptr, ptr }
%"struct.std::_Head_base.66" = type { %"struct.nblib::ListedTypeData.67" }
%"struct.nblib::ListedTypeData.67" = type { %"class.std::vector.68", %"class.std::vector.73" }
%"class.std::vector.68" = type { %"struct.std::_Vector_base.69" }
%"struct.std::_Vector_base.69" = type { %"struct.std::_Vector_base<nblib::TwoParameterInteraction<nblib::LinearAngleParameter>, std::allocator<nblib::TwoParameterInteraction<nblib::LinearAngleParameter>>>::_Vector_impl" }
%"struct.std::_Vector_base<nblib::TwoParameterInteraction<nblib::LinearAngleParameter>, std::allocator<nblib::TwoParameterInteraction<nblib::LinearAngleParameter>>>::_Vector_impl" = type { %"struct.std::_Vector_base<nblib::TwoParameterInteraction<nblib::LinearAngleParameter>, std::allocator<nblib::TwoParameterInteraction<nblib::LinearAngleParameter>>>::_Vector_impl_data" }
%"struct.std::_Vector_base<nblib::TwoParameterInteraction<nblib::LinearAngleParameter>, std::allocator<nblib::TwoParameterInteraction<nblib::LinearAngleParameter>>>::_Vector_impl_data" = type { ptr, ptr, ptr }
%"class.std::vector.73" = type { %"struct.std::_Vector_base.74" }
%"struct.std::_Vector_base.74" = type { %"struct.std::_Vector_base<std::array<int, 4>, std::allocator<std::array<int, 4>>>::_Vector_impl" }
%"struct.std::_Vector_base<std::array<int, 4>, std::allocator<std::array<int, 4>>>::_Vector_impl" = type { %"struct.std::_Vector_base<std::array<int, 4>, std::allocator<std::array<int, 4>>>::_Vector_impl_data" }
%"struct.std::_Vector_base<std::array<int, 4>, std::allocator<std::array<int, 4>>>::_Vector_impl_data" = type { ptr, ptr, ptr }
%"struct.std::_Head_base.78" = type { %"struct.nblib::ListedTypeData.79" }
%"struct.nblib::ListedTypeData.79" = type { %"class.std::vector.80", %"class.std::vector.73" }
%"class.std::vector.80" = type { %"struct.std::_Vector_base.81" }
%"struct.std::_Vector_base.81" = type { %"struct.std::_Vector_base<nblib::CrossBondAngle, std::allocator<nblib::CrossBondAngle>>::_Vector_impl" }
%"struct.std::_Vector_base<nblib::CrossBondAngle, std::allocator<nblib::CrossBondAngle>>::_Vector_impl" = type { %"struct.std::_Vector_base<nblib::CrossBondAngle, std::allocator<nblib::CrossBondAngle>>::_Vector_impl_data" }
%"struct.std::_Vector_base<nblib::CrossBondAngle, std::allocator<nblib::CrossBondAngle>>::_Vector_impl_data" = type { ptr, ptr, ptr }
%"struct.std::_Head_base.85" = type { %"struct.nblib::ListedTypeData.86" }
%"struct.nblib::ListedTypeData.86" = type { %"class.std::vector.87", %"class.std::vector.73" }
%"class.std::vector.87" = type { %"struct.std::_Vector_base.88" }
%"struct.std::_Vector_base.88" = type { %"struct.std::_Vector_base<nblib::CrossBondBond, std::allocator<nblib::CrossBondBond>>::_Vector_impl" }
%"struct.std::_Vector_base<nblib::CrossBondBond, std::allocator<nblib::CrossBondBond>>::_Vector_impl" = type { %"struct.std::_Vector_base<nblib::CrossBondBond, std::allocator<nblib::CrossBondBond>>::_Vector_impl_data" }
%"struct.std::_Vector_base<nblib::CrossBondBond, std::allocator<nblib::CrossBondBond>>::_Vector_impl_data" = type { ptr, ptr, ptr }
%"struct.std::_Head_base.92" = type { %"struct.nblib::ListedTypeData.93" }
%"struct.nblib::ListedTypeData.93" = type { %"class.std::vector.94", %"class.std::vector.73" }
%"class.std::vector.94" = type { %"struct.std::_Vector_base.95" }
%"struct.std::_Vector_base.95" = type { %"struct.std::_Vector_base<nblib::CosineParamAngle<nblib::RestrictedAngleParameter>, std::allocator<nblib::CosineParamAngle<nblib::RestrictedAngleParameter>>>::_Vector_impl" }
%"struct.std::_Vector_base<nblib::CosineParamAngle<nblib::RestrictedAngleParameter>, std::allocator<nblib::CosineParamAngle<nblib::RestrictedAngleParameter>>>::_Vector_impl" = type { %"struct.std::_Vector_base<nblib::CosineParamAngle<nblib::RestrictedAngleParameter>, std::allocator<nblib::CosineParamAngle<nblib::RestrictedAngleParameter>>>::_Vector_impl_data" }
%"struct.std::_Vector_base<nblib::CosineParamAngle<nblib::RestrictedAngleParameter>, std::allocator<nblib::CosineParamAngle<nblib::RestrictedAngleParameter>>>::_Vector_impl_data" = type { ptr, ptr, ptr }
%"struct.std::_Head_base.99" = type { %"struct.nblib::ListedTypeData.100" }
%"struct.nblib::ListedTypeData.100" = type { %"class.std::vector.101", %"class.std::vector.73" }
%"class.std::vector.101" = type { %"struct.std::_Vector_base.102" }
%"struct.std::_Vector_base.102" = type { %"struct.std::_Vector_base<nblib::QuarticAngle, std::allocator<nblib::QuarticAngle>>::_Vector_impl" }
%"struct.std::_Vector_base<nblib::QuarticAngle, std::allocator<nblib::QuarticAngle>>::_Vector_impl" = type { %"struct.std::_Vector_base<nblib::QuarticAngle, std::allocator<nblib::QuarticAngle>>::_Vector_impl_data" }
%"struct.std::_Vector_base<nblib::QuarticAngle, std::allocator<nblib::QuarticAngle>>::_Vector_impl_data" = type { ptr, ptr, ptr }
%"struct.std::_Head_base.106" = type { %"struct.nblib::ListedTypeData.107" }
%"struct.nblib::ListedTypeData.107" = type { %"class.std::vector.108", %"class.std::vector.73" }
%"class.std::vector.108" = type { %"struct.std::_Vector_base.109" }
%"struct.std::_Vector_base.109" = type { %"struct.std::_Vector_base<nblib::CosineParamAngle<nblib::G96AngleParameter>, std::allocator<nblib::CosineParamAngle<nblib::G96AngleParameter>>>::_Vector_impl" }
%"struct.std::_Vector_base<nblib::CosineParamAngle<nblib::G96AngleParameter>, std::allocator<nblib::CosineParamAngle<nblib::G96AngleParameter>>>::_Vector_impl" = type { %"struct.std::_Vector_base<nblib::CosineParamAngle<nblib::G96AngleParameter>, std::allocator<nblib::CosineParamAngle<nblib::G96AngleParameter>>>::_Vector_impl_data" }
%"struct.std::_Vector_base<nblib::CosineParamAngle<nblib::G96AngleParameter>, std::allocator<nblib::CosineParamAngle<nblib::G96AngleParameter>>>::_Vector_impl_data" = type { ptr, ptr, ptr }
%"struct.std::_Head_base.113" = type { %"struct.nblib::ListedTypeData.114" }
%"struct.nblib::ListedTypeData.114" = type { %"class.std::vector.115", %"class.std::vector.73" }
%"class.std::vector.115" = type { %"struct.std::_Vector_base.116" }
%"struct.std::_Vector_base.116" = type { %"struct.std::_Vector_base<nblib::AngleInteractionType<nblib::HarmonicAngleParameter>, std::allocator<nblib::AngleInteractionType<nblib::HarmonicAngleParameter>>>::_Vector_impl" }
%"struct.std::_Vector_base<nblib::AngleInteractionType<nblib::HarmonicAngleParameter>, std::allocator<nblib::AngleInteractionType<nblib::HarmonicAngleParameter>>>::_Vector_impl" = type { %"struct.std::_Vector_base<nblib::AngleInteractionType<nblib::HarmonicAngleParameter>, std::allocator<nblib::AngleInteractionType<nblib::HarmonicAngleParameter>>>::_Vector_impl_data" }
%"struct.std::_Vector_base<nblib::AngleInteractionType<nblib::HarmonicAngleParameter>, std::allocator<nblib::AngleInteractionType<nblib::HarmonicAngleParameter>>>::_Vector_impl_data" = type { ptr, ptr, ptr }
%"struct.std::_Head_base.120" = type { %"struct.nblib::ListedTypeData.121" }
%"struct.nblib::ListedTypeData.121" = type { %"class.std::vector.122", %"class.std::vector.127" }
%"class.std::vector.122" = type { %"struct.std::_Vector_base.123" }
%"struct.std::_Vector_base.123" = type { %"struct.std::_Vector_base<nblib::PairLJType, std::allocator<nblib::PairLJType>>::_Vector_impl" }
%"struct.std::_Vector_base<nblib::PairLJType, std::allocator<nblib::PairLJType>>::_Vector_impl" = type { %"struct.std::_Vector_base<nblib::PairLJType, std::allocator<nblib::PairLJType>>::_Vector_impl_data" }
%"struct.std::_Vector_base<nblib::PairLJType, std::allocator<nblib::PairLJType>>::_Vector_impl_data" = type { ptr, ptr, ptr }
%"class.std::vector.127" = type { %"struct.std::_Vector_base.128" }
%"struct.std::_Vector_base.128" = type { %"struct.std::_Vector_base<std::array<int, 3>, std::allocator<std::array<int, 3>>>::_Vector_impl" }
%"struct.std::_Vector_base<std::array<int, 3>, std::allocator<std::array<int, 3>>>::_Vector_impl" = type { %"struct.std::_Vector_base<std::array<int, 3>, std::allocator<std::array<int, 3>>>::_Vector_impl_data" }
%"struct.std::_Vector_base<std::array<int, 3>, std::allocator<std::array<int, 3>>>::_Vector_impl_data" = type { ptr, ptr, ptr }
%"struct.std::_Head_base.132" = type { %"struct.nblib::ListedTypeData.133" }
%"struct.nblib::ListedTypeData.133" = type { %"class.std::vector.134", %"class.std::vector.127" }
%"class.std::vector.134" = type { %"struct.std::_Vector_base.135" }
%"struct.std::_Vector_base.135" = type { %"struct.std::_Vector_base<nblib::TwoParameterInteraction<nblib::HalfAttractiveQuarticBondTypeParameter>, std::allocator<nblib::TwoParameterInteraction<nblib::HalfAttractiveQuarticBondTypeParameter>>>::_Vector_impl" }
%"struct.std::_Vector_base<nblib::TwoParameterInteraction<nblib::HalfAttractiveQuarticBondTypeParameter>, std::allocator<nblib::TwoParameterInteraction<nblib::HalfAttractiveQuarticBondTypeParameter>>>::_Vector_impl" = type { %"struct.std::_Vector_base<nblib::TwoParameterInteraction<nblib::HalfAttractiveQuarticBondTypeParameter>, std::allocator<nblib::TwoParameterInteraction<nblib::HalfAttractiveQuarticBondTypeParameter>>>::_Vector_impl_data" }
%"struct.std::_Vector_base<nblib::TwoParameterInteraction<nblib::HalfAttractiveQuarticBondTypeParameter>, std::allocator<nblib::TwoParameterInteraction<nblib::HalfAttractiveQuarticBondTypeParameter>>>::_Vector_impl_data" = type { ptr, ptr, ptr }
%"struct.std::_Head_base.139" = type { %"struct.nblib::ListedTypeData.140" }
%"struct.nblib::ListedTypeData.140" = type { %"class.std::vector.141", %"class.std::vector.127" }
%"class.std::vector.141" = type { %"struct.std::_Vector_base.142" }
%"struct.std::_Vector_base.142" = type { %"struct.std::_Vector_base<nblib::TwoParameterInteraction<nblib::FENEBondTypeParameter>, std::allocator<nblib::TwoParameterInteraction<nblib::FENEBondTypeParameter>>>::_Vector_impl" }
%"struct.std::_Vector_base<nblib::TwoParameterInteraction<nblib::FENEBondTypeParameter>, std::allocator<nblib::TwoParameterInteraction<nblib::FENEBondTypeParameter>>>::_Vector_impl" = type { %"struct.std::_Vector_base<nblib::TwoParameterInteraction<nblib::FENEBondTypeParameter>, std::allocator<nblib::TwoParameterInteraction<nblib::FENEBondTypeParameter>>>::_Vector_impl_data" }
%"struct.std::_Vector_base<nblib::TwoParameterInteraction<nblib::FENEBondTypeParameter>, std::allocator<nblib::TwoParameterInteraction<nblib::FENEBondTypeParameter>>>::_Vector_impl_data" = type { ptr, ptr, ptr }
%"struct.std::_Head_base.146" = type { %"struct.nblib::ListedTypeData.147" }
%"struct.nblib::ListedTypeData.147" = type { %"class.std::vector.148", %"class.std::vector.127" }
%"class.std::vector.148" = type { %"struct.std::_Vector_base.149" }
%"struct.std::_Vector_base.149" = type { %"struct.std::_Vector_base<nblib::MorseBondType, std::allocator<nblib::MorseBondType>>::_Vector_impl" }
%"struct.std::_Vector_base<nblib::MorseBondType, std::allocator<nblib::MorseBondType>>::_Vector_impl" = type { %"struct.std::_Vector_base<nblib::MorseBondType, std::allocator<nblib::MorseBondType>>::_Vector_impl_data" }
%"struct.std::_Vector_base<nblib::MorseBondType, std::allocator<nblib::MorseBondType>>::_Vector_impl_data" = type { ptr, ptr, ptr }
%"struct.std::_Head_base.153" = type { %"struct.nblib::ListedTypeData.154" }
%"struct.nblib::ListedTypeData.154" = type { %"class.std::vector.155", %"class.std::vector.127" }
%"class.std::vector.155" = type { %"struct.std::_Vector_base.156" }
%"struct.std::_Vector_base.156" = type { %"struct.std::_Vector_base<nblib::CubicBondType, std::allocator<nblib::CubicBondType>>::_Vector_impl" }
%"struct.std::_Vector_base<nblib::CubicBondType, std::allocator<nblib::CubicBondType>>::_Vector_impl" = type { %"struct.std::_Vector_base<nblib::CubicBondType, std::allocator<nblib::CubicBondType>>::_Vector_impl_data" }
%"struct.std::_Vector_base<nblib::CubicBondType, std::allocator<nblib::CubicBondType>>::_Vector_impl_data" = type { ptr, ptr, ptr }
%"struct.std::_Head_base.160" = type { %"struct.nblib::ListedTypeData.161" }
%"struct.nblib::ListedTypeData.161" = type { %"class.std::vector.162", %"class.std::vector.127" }
%"class.std::vector.162" = type { %"struct.std::_Vector_base.163" }
%"struct.std::_Vector_base.163" = type { %"struct.std::_Vector_base<nblib::G96BondType, std::allocator<nblib::G96BondType>>::_Vector_impl" }
%"struct.std::_Vector_base<nblib::G96BondType, std::allocator<nblib::G96BondType>>::_Vector_impl" = type { %"struct.std::_Vector_base<nblib::G96BondType, std::allocator<nblib::G96BondType>>::_Vector_impl_data" }
%"struct.std::_Vector_base<nblib::G96BondType, std::allocator<nblib::G96BondType>>::_Vector_impl_data" = type { ptr, ptr, ptr }
%"struct.std::_Head_base.167" = type { %"struct.nblib::ListedTypeData.168" }
%"struct.nblib::ListedTypeData.168" = type { %"class.std::vector.169", %"class.std::vector.127" }
%"class.std::vector.169" = type { %"struct.std::_Vector_base.170" }
%"struct.std::_Vector_base.170" = type { %"struct.std::_Vector_base<nblib::TwoParameterInteraction<nblib::HarmonicBondTypeParameter>, std::allocator<nblib::TwoParameterInteraction<nblib::HarmonicBondTypeParameter>>>::_Vector_impl" }
%"struct.std::_Vector_base<nblib::TwoParameterInteraction<nblib::HarmonicBondTypeParameter>, std::allocator<nblib::TwoParameterInteraction<nblib::HarmonicBondTypeParameter>>>::_Vector_impl" = type { %"struct.std::_Vector_base<nblib::TwoParameterInteraction<nblib::HarmonicBondTypeParameter>, std::allocator<nblib::TwoParameterInteraction<nblib::HarmonicBondTypeParameter>>>::_Vector_impl_data" }
%"struct.std::_Vector_base<nblib::TwoParameterInteraction<nblib::HarmonicBondTypeParameter>, std::allocator<nblib::TwoParameterInteraction<nblib::HarmonicBondTypeParameter>>>::_Vector_impl_data" = type { ptr, ptr, ptr }
%"struct.nblib::TprReader" = type <{ %"class.std::vector", %"class.std::vector", %"class.std::vector.3", %"class.std::vector.3", %"class.std::vector.3", %"class.std::vector", %"class.std::vector", %"class.std::vector.8", %"class.std::vector.8", %"class.std::tuple", float, float, float, [4 x i8] }>
%"class.nblib::Box" = type { [3 x [3 x float]] }

; Function Attrs: mustprogress uwtable
define void @_ZNK5nblib9TprReader6getBoxEv(ptr dead_on_unwind noalias writable sret(%"class.nblib::Box") align 4 %0, ptr noundef nonnull align 8 dereferenceable(1092) %1) #0 align 2 {
  %3 = alloca ptr, align 8
  store ptr %1, ptr %3, align 8, !tbaa !4
  %4 = load ptr, ptr %3, align 8
  %5 = getelementptr inbounds nuw %"struct.nblib::TprReader", ptr %4, i32 0, i32 10
  %6 = load float, ptr %5, align 8, !tbaa !289
  %7 = getelementptr inbounds nuw %"struct.nblib::TprReader", ptr %4, i32 0, i32 11
  %8 = load float, ptr %7, align 4, !tbaa !456
  %9 = getelementptr inbounds nuw %"struct.nblib::TprReader", ptr %4, i32 0, i32 12
  %10 = load float, ptr %9, align 8, !tbaa !457
  call void @_ZN5nblib3BoxC1Efff(ptr noundef nonnull align 4 dereferenceable(36) %0, float noundef %6, float noundef %8, float noundef %10)
  ret void
}