; Function Attrs: mustprogress uwtable
define void @_ZNK5nblib9TprReader6getBoxEv(ptr dead_on_unwind noalias nonnull writable sret(%"class.nblib::Box") align 4 %0, ptr noundef nonnull readonly align 8 captures(none) dereferenceable(1092) %1) local_unnamed_addr #0 align 2 {
  %3 = getelementptr inbounds nuw i8, ptr %1, i64 1080
  %4 = load float, ptr %3, align 8, !tbaa !319
  %5 = getelementptr inbounds nuw i8, ptr %1, i64 1084
  %6 = load float, ptr %5, align 4, !tbaa !486
  %7 = getelementptr inbounds nuw i8, ptr %1, i64 1088
  %8 = load float, ptr %7, align 8, !tbaa !487
  tail call void @_ZN5nblib3BoxC1Efff(ptr noundef nonnull align 4 dereferenceable(36) %0, float noundef %4, float noundef %6, float noundef %8)
  ret void
}